target datalayout = "e-m:e-p270:32:32-p271:32:32-p272:64:64-i64:64-i128:128-f80:128-n8:16:32:64-S128"
target triple = "x86_64-pc-linux-gnu"

; Function Attrs: null_pointer_is_valid sspstrong uwtable
define internal zeroext i1 @dissect_bfcp_heur_check(ptr noundef %0, ptr noundef %1, ptr noundef %2, ptr noundef %3) #0 {
  %5 = alloca i1, align 1
  %6 = alloca ptr, align 8
  %7 = alloca ptr, align 8
  %8 = alloca ptr, align 8
  %9 = alloca ptr, align 8
  %10 = alloca i8, align 1
  %11 = alloca i8, align 1
  %12 = alloca ptr, align 8
  %13 = alloca i32, align 4
  store ptr %0, ptr %6, align 8
  store ptr %1, ptr %7, align 8
  store ptr %2, ptr %8, align 8
  store ptr %3, ptr %9, align 8
  call void @llvm.lifetime.start.p0(i64 1, ptr %10) #6
  call void @llvm.lifetime.start.p0(i64 1, ptr %11) #6
  call void @llvm.lifetime.start.p0(i64 8, ptr %12) #6
  %14 = load ptr, ptr %6, align 8
  %15 = call i32 @tvb_captured_length(ptr noundef %14)
  %16 = icmp ult i32 %15, 12
  br i1 %16, label %17, label %18

17:                                               ; preds = %4
  store i1 false, ptr %5, align 1
  store i32 1, ptr %13, align 4
  br label %64

18:                                               ; preds = %4
  %19 = load ptr, ptr %6, align 8
  %20 = call zeroext i8 @tvb_get_uint8(ptr noundef %19, i32 noundef 0)
  store i8 %20, ptr %11, align 1
  %21 = load i8, ptr %11, align 1
  %22 = zext i8 %21 to i32
  %23 = icmp ne i32 %22, 32
  br i1 %23, label %24, label %45

24:                                               ; preds = %18
  %25 = load i8, ptr %11, align 1
  %26 = zext i8 %25 to i32
  %27 = icmp ne i32 %26, 48
  br i1 %27, label %28, label %45

28:                                               ; preds = %24
  %29 = load i8, ptr %11, align 1
  %30 = zext i8 %29 to i32
  %31 = icmp ne i32 %30, 64
  br i1 %31, label %32, label %45

32:                                               ; preds = %28
  %33 = load i8, ptr %11, align 1
  %34 = zext i8 %33 to i32
  %35 = icmp ne i32 %34, 72
  br i1 %35, label %36, label %45

36:                                               ; preds = %32
  %37 = load i8, ptr %11, align 1
  %38 = zext i8 %37 to i32
  %39 = icmp ne i32 %38, 80
  br i1 %39, label %40, label %45

40:                                               ; preds = %36
  %41 = load i8, ptr %11, align 1
  %42 = zext i8 %41 to i32
  %43 = icmp ne i32 %42, 88
  br i1 %43, label %44, label %45

44:                                               ; preds = %40
  store i1 false, ptr %5, align 1
  store i32 1, ptr %13, align 4
  br label %64

45:                                               ; preds = %40, %36, %32, %28, %24, %18
  %46 = load ptr, ptr %6, align 8
  %47 = call zeroext i8 @tvb_get_uint8(ptr noundef %46, i32 noundef 1)
  store i8 %47, ptr %10, align 1
  %48 = load i8, ptr %10, align 1
  %49 = zext i8 %48 to i32
  %50 = icmp slt i32 %49, 1
  br i1 %50, label %55, label %51

51:                                               ; preds = %45
  %52 = load i8, ptr %10, align 1
  %53 = zext i8 %52 to i32
  %54 = icmp sgt i32 %53, 18
  br i1 %54, label %55, label %56

55:                                               ; preds = %51, %45
  store i1 false, ptr %5, align 1
  store i32 1, ptr %13, align 4
  br label %64

56:                                               ; preds = %51
  %57 = load i8, ptr %10, align 1
  %58 = zext i8 %57 to i32
  %59 = call ptr @try_val_to_str(i32 noundef %58, ptr noundef @map_bfcp_primitive)
  store ptr %59, ptr %12, align 8
  %60 = load ptr, ptr %12, align 8
  %61 = icmp eq ptr null, %60
  br i1 %61, label %62, label %63

62:                                               ; preds = %56
  store i1 false, ptr %5, align 1
  store i32 1, ptr %13, align 4
  br label %64

63:                                               ; preds = %56
  store i1 true, ptr %5, align 1
  store i32 1, ptr %13, align 4
  br label %64

64:                                               ; preds = %63, %62, %55, %44, %17
  call void @llvm.lifetime.end.p0(i64 8, ptr %12) #6
  call void @llvm.lifetime.end.p0(i64 1, ptr %11) #6
  call void @llvm.lifetime.end.p0(i64 1, ptr %10) #6
  %65 = load i1, ptr %5, align 1
  ret i1 %65
}

; Function Attrs: null_pointer_is_valid sspstrong uwtable
define internal zeroext i1 @dissect_bfcp_heur(ptr noundef %0, ptr noundef %1, ptr noundef %2, ptr noundef %3) #0 {
  %5 = alloca i1, align 1
  %6 = alloca ptr, align 8
  %7 = alloca ptr, align 8
  %8 = alloca ptr, align 8
  %9 = alloca ptr, align 8
  store ptr %0, ptr %6, align 8
  store ptr %1, ptr %7, align 8
  store ptr %2, ptr %8, align 8
  store ptr %3, ptr %9, align 8
  %10 = load ptr, ptr %6, align 8
  %11 = load ptr, ptr %7, align 8
  %12 = load ptr, ptr %8, align 8
  %13 = load ptr, ptr %9, align 8
  %14 = call zeroext i1 @dissect_bfcp_heur_check(ptr noundef %10, ptr noundef %11, ptr noundef %12, ptr noundef %13)
  br i1 %14, label %16, label %15

15:                                               ; preds = %4
  store i1 false, ptr %5, align 1
  br label %22

16:                                               ; preds = %4
  %17 = load ptr, ptr %6, align 8
  %18 = load ptr, ptr %7, align 8
  %19 = load ptr, ptr %8, align 8
  %20 = load ptr, ptr %9, align 8
  %21 = call i32 @dissect_bfcp(ptr noundef %17, ptr noundef %18, ptr noundef %19, ptr noundef %20)
  store i1 true, ptr %5, align 1
  br label %22

22:                                               ; preds = %16, %15
  %23 = load i1, ptr %5, align 1
  ret i1 %23
}