; Function Attrs: null_pointer_is_valid sspstrong uwtable
define internal noundef zeroext i1 @dissect_bfcp_heur(ptr noundef %0, ptr noundef %1, ptr noundef %2, ptr readnone captures(none) %3) #0 {
  %5 = tail call i32 @tvb_captured_length(ptr noundef %0)
  %6 = icmp ult i32 %5, 12
  br i1 %6, label %dissect_bfcp_heur_check.exit.thread, label %7

7:                                                ; preds = %4
  %8 = tail call zeroext i8 @tvb_get_uint8(ptr noundef %0, i32 noundef 0)
  %9 = add i8 %8, -32
  %10 = tail call i8 @llvm.fshl.i8(i8 %9, i8 %9, i8 5)
  switch i8 %10, label %dissect_bfcp_heur_check.exit.thread [
    i8 7, label %11
    i8 6, label %11
    i8 5, label %11
    i8 4, label %11
    i8 2, label %11
    i8 0, label %11
  ]

11:                                               ; preds = %7, %7, %7, %7, %7, %7
  %12 = tail call zeroext i8 @tvb_get_uint8(ptr noundef %0, i32 noundef 1)
  %13 = add i8 %12, -19
  %or.cond17.i = icmp ult i8 %13, -18
  br i1 %or.cond17.i, label %dissect_bfcp_heur_check.exit.thread, label %dissect_bfcp_heur_check.exit

dissect_bfcp_heur_check.exit:                     ; preds = %11
  %14 = zext nneg i8 %12 to i32
  %15 = tail call ptr @try_val_to_str(i32 noundef %14, ptr noundef nonnull @map_bfcp_primitive)
  %.not = icmp eq ptr %15, null
  br i1 %.not, label %dissect_bfcp_heur_check.exit.thread, label %16

16:                                               ; preds = %dissect_bfcp_heur_check.exit
  %17 = tail call i32 @dissect_bfcp(ptr noundef %0, ptr noundef %1, ptr noundef %2, ptr poison)
  br label %dissect_bfcp_heur_check.exit.thread

dissect_bfcp_heur_check.exit.thread:              ; preds = %11, %7, %4, %dissect_bfcp_heur_check.exit, %16
  %.0.i10 = phi i1 [ false, %dissect_bfcp_heur_check.exit ], [ true, %16 ], [ false, %4 ], [ false, %7 ], [ false, %11 ]
  ret i1 %.0.i10
}